; Function Attrs: mustprogress uwtable
define internal void @_ZN7mitsubaL20jpeg_skip_input_dataEP22jpeg_decompress_structl(ptr nocapture noundef readonly %0, i64 noundef %1) #0 personality ptr @__gxx_personality_v0 {
  %3 = icmp sgt i64 %1, 0
  br i1 %3, label %.preheader, label %50

.preheader:                                       ; preds = %2
  %4 = getelementptr inbounds i8, ptr %0, i64 40
  %5 = load ptr, ptr %4, align 8
  %6 = getelementptr inbounds i8, ptr %5, i64 8
  %7 = load i64, ptr %6, align 8
  %8 = icmp slt i64 %7, %1
  br i1 %8, label %.lr.ph, label %._crit_edge

.lr.ph:                                           ; preds = %.preheader, %_ZN7mitsubaL22jpeg_fill_input_bufferEP22jpeg_decompress_struct.exit
  %9 = phi i64 [ %42, %_ZN7mitsubaL22jpeg_fill_input_bufferEP22jpeg_decompress_struct.exit ], [ %7, %.preheader ]
  %10 = phi ptr [ %40, %_ZN7mitsubaL22jpeg_fill_input_bufferEP22jpeg_decompress_struct.exit ], [ %5, %.preheader ]
  %.016 = phi i64 [ %11, %_ZN7mitsubaL22jpeg_fill_input_bufferEP22jpeg_decompress_struct.exit ], [ %1, %.preheader ]
  %11 = sub nsw i64 %.016, %9
  %12 = getelementptr inbounds i8, ptr %10, i64 64
  %13 = load ptr, ptr %12, align 8
  %14 = getelementptr inbounds i8, ptr %10, i64 56
  %15 = load ptr, ptr %14, align 8
  %16 = load ptr, ptr %13, align 8
  %17 = getelementptr inbounds i8, ptr %16, i64 88
  %18 = load ptr, ptr %17, align 8
  invoke void %18(ptr noundef nonnull align 8 dereferenceable(16) %13, ptr noundef %15, i64 noundef 32768)
          to label %_ZN7mitsubaL22jpeg_fill_input_bufferEP22jpeg_decompress_struct.exit unwind label %19

19:                                               ; preds = %.lr.ph
  %20 = landingpad { ptr, i32 }
          catch ptr @_ZTIN7mitsuba12EOFExceptionE
  %21 = extractvalue { ptr, i32 } %20, 1
  %22 = tail call i32 @llvm.eh.typeid.for(ptr nonnull @_ZTIN7mitsuba12EOFExceptionE) #36
  %23 = icmp eq i32 %21, %22
  br i1 %23, label %24, label %35

24:                                               ; preds = %19
  %25 = extractvalue { ptr, i32 } %20, 0
  %26 = tail call ptr @__cxa_begin_catch(ptr %25) #36
  %27 = getelementptr inbounds i8, ptr %26, i64 16
  %28 = load i64, ptr %27, align 8
  %29 = icmp eq i64 %28, 0
  br i1 %29, label %30, label %34

30:                                               ; preds = %24
  %31 = load ptr, ptr %14, align 8
  store i8 -1, ptr %31, align 1
  %32 = load ptr, ptr %14, align 8
  %33 = getelementptr inbounds i8, ptr %32, i64 1
  store i8 -39, ptr %33, align 1
  br label %34

34:                                               ; preds = %30, %24
  %.0.i = phi i64 [ 2, %30 ], [ %28, %24 ]
  tail call void @__cxa_end_catch()
  br label %_ZN7mitsubaL22jpeg_fill_input_bufferEP22jpeg_decompress_struct.exit

35:                                               ; preds = %19
  resume { ptr, i32 } %20

_ZN7mitsubaL22jpeg_fill_input_bufferEP22jpeg_decompress_struct.exit: ; preds = %.lr.ph, %34
  %.1.i = phi i64 [ %.0.i, %34 ], [ 32768, %.lr.ph ]
  %36 = load ptr, ptr %4, align 8
  %37 = getelementptr inbounds i8, ptr %36, i64 8
  store i64 %.1.i, ptr %37, align 8
  %38 = load ptr, ptr %14, align 8
  %39 = load ptr, ptr %4, align 8
  store ptr %38, ptr %39, align 8
  %40 = load ptr, ptr %4, align 8
  %41 = getelementptr inbounds i8, ptr %40, i64 8
  %42 = load i64, ptr %41, align 8
  %43 = icmp sgt i64 %11, %42
  br i1 %43, label %.lr.ph, label %._crit_edge, !llvm.loop !258

._crit_edge:                                      ; preds = %_ZN7mitsubaL22jpeg_fill_input_bufferEP22jpeg_decompress_struct.exit, %.preheader
  %.0.lcssa = phi i64 [ %1, %.preheader ], [ %11, %_ZN7mitsubaL22jpeg_fill_input_bufferEP22jpeg_decompress_struct.exit ]
  %.lcssa = phi ptr [ %5, %.preheader ], [ %40, %_ZN7mitsubaL22jpeg_fill_input_bufferEP22jpeg_decompress_struct.exit ]
  %44 = load ptr, ptr %.lcssa, align 8
  %45 = getelementptr inbounds i8, ptr %44, i64 %.0.lcssa
  store ptr %45, ptr %.lcssa, align 8
  %46 = load ptr, ptr %4, align 8
  %47 = getelementptr inbounds i8, ptr %46, i64 8
  %48 = load i64, ptr %47, align 8
  %49 = sub i64 %48, %.0.lcssa
  store i64 %49, ptr %47, align 8
  br label %50

50:                                               ; preds = %._crit_edge, %2
  ret void
}